; Function Attrs: nounwind uwtable
define internal fastcc ptr @type_lowering(ptr noundef readonly captures(none) %0) unnamed_addr #0 {
  %2 = load ptr, ptr @type_void, align 8
  br label %.backedge

.backedge:                                        ; preds = %.backedge.backedge, %1
  %.026 = phi ptr [ %0, %1 ], [ %.026.be, %.backedge.backedge ]
  %3 = getelementptr inbounds nuw i8, ptr %.026, i64 8
  %4 = load ptr, ptr %3, align 8
  %5 = load i32, ptr %4, align 8
  switch i32 %5, label %.loopexit [
    i32 31, label %6
    i32 40, label %7
    i32 32, label %10
    i32 24, label %17
    i32 20, label %24
    i32 21, label %26
    i32 22, label %26
    i32 30, label %26
    i32 29, label %30
    i32 41, label %.backedge.backedge
    i32 23, label %37
    i32 34, label %44
    i32 33, label %44
    i32 37, label %44
    i32 35, label %44
  ]

.backedge.backedge:                               ; preds = %.backedge, %7, %10, %17, %30
  %.026.be = phi ptr [ %36, %30 ], [ %23, %17 ], [ %16, %10 ], [ %9, %7 ], [ %2, %.backedge ]
  br label %.backedge

6:                                                ; preds = %.backedge
  tail call void (ptr, ...) @error_exit(ptr noundef nonnull @.str.6, ptr noundef nonnull @.str.7, ptr noundef nonnull @__func__.type_lowering, ptr noundef nonnull @.str.8, i32 noundef 29) #4
  unreachable

7:                                                ; preds = %.backedge
  %8 = getelementptr inbounds nuw i8, ptr %4, i64 56
  %9 = load ptr, ptr %8, align 8
  br label %.backedge.backedge

10:                                               ; preds = %.backedge
  %11 = getelementptr inbounds nuw i8, ptr %4, i64 56
  %12 = load ptr, ptr %11, align 8
  %13 = getelementptr inbounds nuw i8, ptr %12, i64 96
  %14 = load ptr, ptr %13, align 8
  %15 = getelementptr inbounds nuw i8, ptr %14, i64 8
  %16 = load ptr, ptr %15, align 8
  br label %.backedge.backedge

17:                                               ; preds = %.backedge
  %18 = getelementptr inbounds nuw i8, ptr %4, i64 56
  %19 = load ptr, ptr %18, align 8
  %20 = getelementptr inbounds nuw i8, ptr %19, i64 112
  %21 = load ptr, ptr %20, align 8
  %22 = getelementptr inbounds nuw i8, ptr %21, i64 8
  %23 = load ptr, ptr %22, align 8
  br label %.backedge.backedge

24:                                               ; preds = %.backedge
  %25 = load ptr, ptr @type_anyptr, align 8
  br label %.loopexit

26:                                               ; preds = %.backedge, %.backedge, %.backedge
  %27 = load ptr, ptr @type_iptr, align 8
  %28 = getelementptr inbounds nuw i8, ptr %27, i64 8
  %29 = load ptr, ptr %28, align 8
  br label %.loopexit

30:                                               ; preds = %.backedge
  %31 = getelementptr inbounds nuw i8, ptr %4, i64 56
  %32 = load ptr, ptr %31, align 8
  %33 = getelementptr inbounds nuw i8, ptr %32, i64 96
  %34 = load ptr, ptr %33, align 8
  %35 = getelementptr inbounds nuw i8, ptr %34, i64 8
  %36 = load ptr, ptr %35, align 8
  br label %.backedge.backedge

37:                                               ; preds = %.backedge
  %38 = getelementptr inbounds nuw i8, ptr %4, i64 56
  %39 = load ptr, ptr %38, align 8
  %40 = tail call fastcc ptr @type_lowering(ptr noundef %39)
  %41 = icmp eq ptr %40, %39
  br i1 %41, label %.loopexit, label %42

42:                                               ; preds = %37
  %43 = tail call ptr @type_get_ptr(ptr noundef %40) #3
  br label %.loopexit

44:                                               ; preds = %.backedge, %.backedge, %.backedge, %.backedge
  %45 = getelementptr inbounds nuw i8, ptr %4, i64 56
  %46 = load ptr, ptr %45, align 8
  %47 = tail call fastcc ptr @type_lowering(ptr noundef %46)
  %48 = icmp eq ptr %47, %46
  br i1 %48, label %.loopexit, label %49

49:                                               ; preds = %44
  %50 = load i32, ptr %4, align 8
  switch i32 %50, label %63 [
    i32 34, label %51
    i32 33, label %53
    i32 37, label %57
    i32 35, label %61
  ]

51:                                               ; preds = %49
  %52 = tail call ptr @type_get_subarray(ptr noundef %47) #3
  br label %.loopexit

53:                                               ; preds = %49
  %54 = getelementptr inbounds nuw i8, ptr %4, i64 64
  %55 = load i32, ptr %54, align 8
  %56 = tail call ptr @type_get_array(ptr noundef %47, i32 noundef %55) #3
  br label %.loopexit

57:                                               ; preds = %49
  %58 = getelementptr inbounds nuw i8, ptr %4, i64 64
  %59 = load i32, ptr %58, align 8
  %60 = tail call ptr @type_get_vector(ptr noundef %47, i32 noundef %59) #3
  br label %.loopexit

61:                                               ; preds = %49
  %62 = tail call ptr @type_get_flexible_array(ptr noundef %47) #3
  br label %.loopexit

63:                                               ; preds = %49
  tail call void (ptr, ...) @error_exit(ptr noundef nonnull @.str.6, ptr noundef nonnull @.str.7, ptr noundef nonnull @__func__.type_lowering, ptr noundef nonnull @.str.8, i32 noundef 77) #4
  unreachable

.loopexit:                                        ; preds = %.backedge, %44, %37, %61, %57, %53, %51, %42, %26, %24
  %.0 = phi ptr [ %62, %61 ], [ %60, %57 ], [ %56, %53 ], [ %52, %51 ], [ %43, %42 ], [ %29, %26 ], [ %25, %24 ], [ %4, %37 ], [ %4, %44 ], [ %4, %.backedge ]
  ret ptr %.0
}